target datalayout = "e-m:e-p270:32:32-p271:32:32-p272:64:64-i64:64-i128:128-f80:128-n8:16:32:64-S128"
target triple = "x86_64-pc-linux-gnu"

%"class.icu_77::number::impl::AdoptingSignumModifierStore" = type { ptr, [4 x ptr] }

; Function Attrs: mustprogress nounwind uwtable
define void @_ZN6icu_776number4impl27AdoptingSignumModifierStoreD2Ev(ptr noundef nonnull align 8 dereferenceable(40) %0) unnamed_addr #0 align 2 {
  %2 = alloca ptr, align 8
  %3 = alloca ptr, align 8
  %4 = alloca ptr, align 8
  %5 = alloca ptr, align 8
  %6 = alloca ptr, align 8
  store ptr %0, ptr %2, align 8, !tbaa !27
  %7 = load ptr, ptr %2, align 8
  store ptr getelementptr inbounds inrange(-16, 16) ({ [4 x ptr] }, ptr @_ZTVN6icu_776number4impl27AdoptingSignumModifierStoreE, i32 0, i32 0, i32 2), ptr %7, align 8, !tbaa !20
  call void @llvm.lifetime.start.p0(i64 8, ptr %3) #15
  %8 = getelementptr inbounds nuw %"class.icu_77::number::impl::AdoptingSignumModifierStore", ptr %7, i32 0, i32 1
  store ptr %8, ptr %3, align 8, !tbaa !29
  call void @llvm.lifetime.start.p0(i64 8, ptr %4) #15
  %9 = load ptr, ptr %3, align 8, !tbaa !29
  %10 = getelementptr inbounds [4 x ptr], ptr %9, i64 0, i64 0
  store ptr %10, ptr %4, align 8, !tbaa !29
  call void @llvm.lifetime.start.p0(i64 8, ptr %5) #15
  %11 = load ptr, ptr %3, align 8, !tbaa !29
  %12 = getelementptr inbounds [4 x ptr], ptr %11, i64 0, i64 0
  %13 = getelementptr inbounds ptr, ptr %12, i64 4
  store ptr %13, ptr %5, align 8, !tbaa !29
  br label %14

14:                                               ; preds = %29, %1
  %15 = load ptr, ptr %4, align 8, !tbaa !29
  %16 = load ptr, ptr %5, align 8, !tbaa !29
  %17 = icmp ne ptr %15, %16
  br i1 %17, label %19, label %18

18:                                               ; preds = %14
  call void @llvm.lifetime.end.p0(i64 8, ptr %5) #15
  call void @llvm.lifetime.end.p0(i64 8, ptr %4) #15
  call void @llvm.lifetime.end.p0(i64 8, ptr %3) #15
  br label %32

19:                                               ; preds = %14
  call void @llvm.lifetime.start.p0(i64 8, ptr %6) #15
  %20 = load ptr, ptr %4, align 8, !tbaa !29
  %21 = load ptr, ptr %20, align 8, !tbaa !3
  store ptr %21, ptr %6, align 8, !tbaa !3
  %22 = load ptr, ptr %6, align 8, !tbaa !3
  %23 = icmp eq ptr %22, null
  br i1 %23, label %28, label %24

24:                                               ; preds = %19
  %25 = load ptr, ptr %22, align 8, !tbaa !20
  %26 = getelementptr inbounds ptr, ptr %25, i64 1
  %27 = load ptr, ptr %26, align 8
  call void %27(ptr noundef nonnull align 8 dereferenceable(8) %22) #15
  br label %28

28:                                               ; preds = %24, %19
  call void @llvm.lifetime.end.p0(i64 8, ptr %6) #15
  br label %29

29:                                               ; preds = %28
  %30 = load ptr, ptr %4, align 8, !tbaa !29
  %31 = getelementptr inbounds nuw ptr, ptr %30, i32 1
  store ptr %31, ptr %4, align 8, !tbaa !29
  br label %14

32:                                               ; preds = %18
  ret void
}