; Function Attrs: mustprogress nounwind uwtable
define void @_ZN6icu_776number4impl27AdoptingSignumModifierStoreD2Ev(ptr noundef nonnull align 8 captures(none) dereferenceable(40) initializes((0, 8)) %0) unnamed_addr #6 align 2 {
  store ptr getelementptr inbounds nuw inrange(-16, 16) (i8, ptr @_ZTVN6icu_776number4impl27AdoptingSignumModifierStoreE, i64 16), ptr %0, align 8, !tbaa !13
  br label %3

2:                                                ; preds = %10
  ret void

3:                                                ; preds = %1, %10
  %.0.idx10 = phi i64 [ 8, %1 ], [ %.0.add, %10 ]
  %.0.ptr = getelementptr inbounds nuw i8, ptr %0, i64 %.0.idx10
  %4 = load ptr, ptr %.0.ptr, align 8, !tbaa !18
  %5 = icmp eq ptr %4, null
  br i1 %5, label %10, label %6

6:                                                ; preds = %3
  %7 = load ptr, ptr %4, align 8, !tbaa !13
  %8 = getelementptr inbounds nuw i8, ptr %7, i64 8
  %9 = load ptr, ptr %8, align 8
  tail call void %9(ptr noundef nonnull align 8 dereferenceable(8) %4) #19
  br label %10

10:                                               ; preds = %6, %3
  %.0.add = add nuw nsw i64 %.0.idx10, 8
  %.not = icmp eq i64 %.0.add, 40
  br i1 %.not, label %2, label %3
}